target datalayout = "e-m:e-p270:32:32-p271:32:32-p272:64:64-i64:64-i128:128-f80:128-n8:16:32:64-S128"
target triple = "x86_64-pc-linux-gnu"

%"struct.clang::extractapi::SymbolReference" = type { %"class.llvm::StringRef", %"class.llvm::StringRef", %"class.llvm::StringRef", ptr }
%"class.llvm::StringRef" = type { ptr, i64 }

; Function Attrs: mustprogress nounwind uwtable
define linkonce_odr hidden void @_ZN5clang10extractapi15SymbolReferenceC2EN4llvm9StringRefES3_S3_(ptr noundef nonnull align 8 dereferenceable(56) %0, ptr %1, i64 %2, ptr %3, i64 %4, ptr noundef byval(%"class.llvm::StringRef") align 8 %5) unnamed_addr #0 comdat align 2 {
  %7 = alloca %"class.llvm::StringRef", align 8
  %8 = alloca %"class.llvm::StringRef", align 8
  %9 = alloca ptr, align 8
  %10 = getelementptr inbounds nuw { ptr, i64 }, ptr %7, i32 0, i32 0
  store ptr %1, ptr %10, align 8
  %11 = getelementptr inbounds nuw { ptr, i64 }, ptr %7, i32 0, i32 1
  store i64 %2, ptr %11, align 8
  %12 = getelementptr inbounds nuw { ptr, i64 }, ptr %8, i32 0, i32 0
  store ptr %3, ptr %12, align 8
  %13 = getelementptr inbounds nuw { ptr, i64 }, ptr %8, i32 0, i32 1
  store i64 %4, ptr %13, align 8
  store ptr %0, ptr %9, align 8
  %14 = load ptr, ptr %9, align 8
  %15 = getelementptr inbounds nuw %"struct.clang::extractapi::SymbolReference", ptr %14, i32 0, i32 0
  call void @llvm.memcpy.p0.p0.i64(ptr align 8 %15, ptr align 8 %7, i64 16, i1 false)
  %16 = getelementptr inbounds nuw %"struct.clang::extractapi::SymbolReference", ptr %14, i32 0, i32 1
  call void @llvm.memcpy.p0.p0.i64(ptr align 8 %16, ptr align 8 %8, i64 16, i1 false)
  %17 = getelementptr inbounds nuw %"struct.clang::extractapi::SymbolReference", ptr %14, i32 0, i32 2
  call void @llvm.memcpy.p0.p0.i64(ptr align 8 %17, ptr align 8 %5, i64 16, i1 false)
  %18 = getelementptr inbounds nuw %"struct.clang::extractapi::SymbolReference", ptr %14, i32 0, i32 3
  store ptr null, ptr %18, align 8
  ret void
}

; Function Attrs: mustprogress nounwind uwtable
define dso_local void @_ZN5clang10extractapi6APISet21createSymbolReferenceEN4llvm9StringRefES3_S3_(ptr dead_on_unwind noalias writable sret(%"struct.clang::extractapi::SymbolReference") align 8 %0, ptr noundef nonnull align 8 dereferenceable(488) %1, ptr %2, i64 %3, ptr %4, i64 %5, ptr noundef byval(%"class.llvm::StringRef") align 8 %6) #0 align 2 {
  %8 = alloca %"class.llvm::StringRef", align 8
  %9 = alloca %"class.llvm::StringRef", align 8
  %10 = alloca ptr, align 8
  %11 = alloca %"class.llvm::StringRef", align 8
  %12 = alloca %"class.llvm::StringRef", align 8
  %13 = alloca %"class.llvm::StringRef", align 8
  %14 = alloca %"class.llvm::StringRef", align 8
  %15 = alloca %"class.llvm::StringRef", align 8
  %16 = alloca %"class.llvm::StringRef", align 8
  %17 = getelementptr inbounds nuw { ptr, i64 }, ptr %8, i32 0, i32 0
  store ptr %2, ptr %17, align 8
  %18 = getelementptr inbounds nuw { ptr, i64 }, ptr %8, i32 0, i32 1
  store i64 %3, ptr %18, align 8
  %19 = getelementptr inbounds nuw { ptr, i64 }, ptr %9, i32 0, i32 0
  store ptr %4, ptr %19, align 8
  %20 = getelementptr inbounds nuw { ptr, i64 }, ptr %9, i32 0, i32 1
  store i64 %5, ptr %20, align 8
  store ptr %1, ptr %10, align 8
  %21 = load ptr, ptr %10, align 8
  call void @llvm.memcpy.p0.p0.i64(ptr align 8 %12, ptr align 8 %8, i64 16, i1 false)
  %22 = getelementptr inbounds nuw { ptr, i64 }, ptr %12, i32 0, i32 0
  %23 = load ptr, ptr %22, align 8
  %24 = getelementptr inbounds nuw { ptr, i64 }, ptr %12, i32 0, i32 1
  %25 = load i64, ptr %24, align 8
  %26 = call { ptr, i64 } @_ZN5clang10extractapi6APISet10copyStringEN4llvm9StringRefE(ptr noundef nonnull align 8 dereferenceable(488) %21, ptr %23, i64 %25)
  %27 = getelementptr inbounds nuw { ptr, i64 }, ptr %11, i32 0, i32 0
  %28 = extractvalue { ptr, i64 } %26, 0
  store ptr %28, ptr %27, align 8
  %29 = getelementptr inbounds nuw { ptr, i64 }, ptr %11, i32 0, i32 1
  %30 = extractvalue { ptr, i64 } %26, 1
  store i64 %30, ptr %29, align 8
  call void @llvm.memcpy.p0.p0.i64(ptr align 8 %14, ptr align 8 %9, i64 16, i1 false)
  %31 = getelementptr inbounds nuw { ptr, i64 }, ptr %14, i32 0, i32 0
  %32 = load ptr, ptr %31, align 8
  %33 = getelementptr inbounds nuw { ptr, i64 }, ptr %14, i32 0, i32 1
  %34 = load i64, ptr %33, align 8
  %35 = call { ptr, i64 } @_ZN5clang10extractapi6APISet10copyStringEN4llvm9StringRefE(ptr noundef nonnull align 8 dereferenceable(488) %21, ptr %32, i64 %34)
  %36 = getelementptr inbounds nuw { ptr, i64 }, ptr %13, i32 0, i32 0
  %37 = extractvalue { ptr, i64 } %35, 0
  store ptr %37, ptr %36, align 8
  %38 = getelementptr inbounds nuw { ptr, i64 }, ptr %13, i32 0, i32 1
  %39 = extractvalue { ptr, i64 } %35, 1
  store i64 %39, ptr %38, align 8
  call void @llvm.memcpy.p0.p0.i64(ptr align 8 %16, ptr align 8 %6, i64 16, i1 false)
  %40 = getelementptr inbounds nuw { ptr, i64 }, ptr %16, i32 0, i32 0
  %41 = load ptr, ptr %40, align 8
  %42 = getelementptr inbounds nuw { ptr, i64 }, ptr %16, i32 0, i32 1
  %43 = load i64, ptr %42, align 8
  %44 = call { ptr, i64 } @_ZN5clang10extractapi6APISet10copyStringEN4llvm9StringRefE(ptr noundef nonnull align 8 dereferenceable(488) %21, ptr %41, i64 %43)
  %45 = getelementptr inbounds nuw { ptr, i64 }, ptr %15, i32 0, i32 0
  %46 = extractvalue { ptr, i64 } %44, 0
  store ptr %46, ptr %45, align 8
  %47 = getelementptr inbounds nuw { ptr, i64 }, ptr %15, i32 0, i32 1
  %48 = extractvalue { ptr, i64 } %44, 1
  store i64 %48, ptr %47, align 8
  %49 = getelementptr inbounds nuw { ptr, i64 }, ptr %11, i32 0, i32 0
  %50 = load ptr, ptr %49, align 8
  %51 = getelementptr inbounds nuw { ptr, i64 }, ptr %11, i32 0, i32 1
  %52 = load i64, ptr %51, align 8
  %53 = getelementptr inbounds nuw { ptr, i64 }, ptr %13, i32 0, i32 0
  %54 = load ptr, ptr %53, align 8
  %55 = getelementptr inbounds nuw { ptr, i64 }, ptr %13, i32 0, i32 1
  %56 = load i64, ptr %55, align 8
  call void @_ZN5clang10extractapi15SymbolReferenceC2EN4llvm9StringRefES3_S3_(ptr noundef nonnull align 8 dereferenceable(56) %0, ptr %50, i64 %52, ptr %54, i64 %56, ptr noundef byval(%"class.llvm::StringRef") align 8 %15)
  ret void
}