; Function Attrs: mustprogress nounwind uwtable
define dso_local void @_ZN5clang10extractapi6APISet21createSymbolReferenceEN4llvm9StringRefES3_S3_(ptr dead_on_unwind noalias nocapture writable writeonly sret(%"struct.clang::extractapi::SymbolReference") align 8 %0, ptr noundef nonnull align 8 dereferenceable(488) %1, ptr %2, i64 %3, ptr %4, i64 %5, ptr nocapture noundef readonly byval(%"class.llvm::StringRef") align 8 %6) local_unnamed_addr #3 align 2 {
  %8 = tail call { ptr, i64 } @_ZN5clang10extractapi6APISet10copyStringEN4llvm9StringRefE(ptr noundef nonnull align 8 dereferenceable(488) %1, ptr %2, i64 %3)
  %9 = extractvalue { ptr, i64 } %8, 0
  %10 = extractvalue { ptr, i64 } %8, 1
  %11 = tail call { ptr, i64 } @_ZN5clang10extractapi6APISet10copyStringEN4llvm9StringRefE(ptr noundef nonnull align 8 dereferenceable(488) %1, ptr %4, i64 %5)
  %12 = extractvalue { ptr, i64 } %11, 0
  %13 = extractvalue { ptr, i64 } %11, 1
  %.sroa.0.0.copyload = load ptr, ptr %6, align 8
  %.sroa.2.0..sroa_idx = getelementptr inbounds i8, ptr %6, i64 8
  %.sroa.2.0.copyload = load i64, ptr %.sroa.2.0..sroa_idx, align 8
  %14 = tail call { ptr, i64 } @_ZN5clang10extractapi6APISet10copyStringEN4llvm9StringRefE(ptr noundef nonnull align 8 dereferenceable(488) %1, ptr %.sroa.0.0.copyload, i64 %.sroa.2.0.copyload)
  %15 = extractvalue { ptr, i64 } %14, 0
  %16 = extractvalue { ptr, i64 } %14, 1
  store ptr %9, ptr %0, align 8
  %.sroa.22.0..sroa_idx.i = getelementptr inbounds i8, ptr %0, i64 8
  store i64 %10, ptr %.sroa.22.0..sroa_idx.i, align 8
  %17 = getelementptr inbounds nuw i8, ptr %0, i64 16
  store ptr %12, ptr %17, align 8
  %.sroa.2.0..sroa_idx.i = getelementptr inbounds i8, ptr %0, i64 24
  store i64 %13, ptr %.sroa.2.0..sroa_idx.i, align 8
  %18 = getelementptr inbounds nuw i8, ptr %0, i64 32
  store ptr %15, ptr %18, align 8
  %.sroa.4.0..sroa_idx = getelementptr inbounds i8, ptr %0, i64 40
  store i64 %16, ptr %.sroa.4.0..sroa_idx, align 8
  %19 = getelementptr inbounds nuw i8, ptr %0, i64 48
  store ptr null, ptr %19, align 8
  ret void
}